; Function Attrs: nounwind uwtable
define ptr @l___private_Std_Sync_Channel_0__Std_CloseableChannel_Bounded_send___rarg___lambda__1(ptr noundef %0, ptr noundef %1, ptr noundef %2, ptr noundef %3) local_unnamed_addr #1 {
  %5 = ptrtoint ptr %2 to i64
  %6 = and i64 %5, 1
  %.not.i31 = icmp eq i64 %6, 0
  br i1 %.not.i31, label %10, label %7

7:                                                ; preds = %4
  %8 = lshr i64 %5, 1
  %9 = trunc i64 %8 to i32
  br label %lean_obj_tag.exit

10:                                               ; preds = %4
  %11 = getelementptr i8, ptr %2, i64 4
  %.val.i = load i32, ptr %11, align 4
  %12 = lshr i32 %.val.i, 24
  br label %lean_obj_tag.exit

lean_obj_tag.exit:                                ; preds = %7, %10
  %.0.i = phi i32 [ %9, %7 ], [ %12, %10 ]
  %13 = icmp eq i32 %.0.i, 0
  br i1 %13, label %14, label %40

14:                                               ; preds = %lean_obj_tag.exit
  %15 = ptrtoint ptr %1 to i64
  %16 = and i64 %15, 1
  %.not34 = icmp eq i64 %16, 0
  br i1 %.not34, label %17, label %lean_dec.exit24

17:                                               ; preds = %14
  %18 = load i32, ptr %1, align 4, !tbaa !4
  %19 = icmp sgt i32 %18, 1
  br i1 %19, label %20, label %22, !prof !9

20:                                               ; preds = %17
  %21 = add nsw i32 %18, -1
  store i32 %21, ptr %1, align 4, !tbaa !4
  br label %lean_dec.exit24

22:                                               ; preds = %17
  %.not.i = icmp eq i32 %18, 0
  br i1 %.not.i, label %lean_dec.exit24, label %23

23:                                               ; preds = %22
  tail call void @lean_dec_ref_cold(ptr noundef nonnull %1) #7
  br label %lean_dec.exit24

lean_dec.exit24:                                  ; preds = %23, %22, %20, %14
  %24 = ptrtoint ptr %0 to i64
  %25 = and i64 %24, 1
  %.not35 = icmp eq i64 %25, 0
  br i1 %.not35, label %26, label %lean_dec.exit23

26:                                               ; preds = %lean_dec.exit24
  %27 = load i32, ptr %0, align 4, !tbaa !4
  %28 = icmp sgt i32 %27, 1
  br i1 %28, label %29, label %31, !prof !9

29:                                               ; preds = %26
  %30 = add nsw i32 %27, -1
  store i32 %30, ptr %0, align 4, !tbaa !4
  br label %lean_dec.exit23

31:                                               ; preds = %26
  %.not.i25 = icmp eq i32 %27, 0
  br i1 %.not.i25, label %lean_dec.exit23, label %32

32:                                               ; preds = %31
  tail call void @lean_dec_ref_cold(ptr noundef nonnull %0) #7
  br label %lean_dec.exit23

lean_dec.exit23:                                  ; preds = %32, %31, %29, %lean_dec.exit24
  %33 = load ptr, ptr @l___private_Std_Sync_Channel_0__Std_CloseableChannel_Unbounded_send___rarg___closed__2, align 8, !tbaa !10
  tail call void @lean_inc_heartbeat() #7
  %34 = tail call noalias ptr @mi_malloc_small(i64 noundef 24) #7
  %35 = icmp eq ptr %34, null
  br i1 %35, label %36, label %lean_alloc_ctor.exit

36:                                               ; preds = %lean_dec.exit23
  tail call void @lean_internal_panic_out_of_memory() #8
  unreachable

lean_alloc_ctor.exit:                             ; preds = %lean_dec.exit23
  %37 = getelementptr inbounds nuw i8, ptr %34, i64 4
  store i32 1, ptr %34, align 4, !tbaa !4
  store i32 131096, ptr %37, align 4
  %38 = getelementptr inbounds nuw i8, ptr %34, i64 8
  store ptr %33, ptr %38, align 8, !tbaa !10
  %39 = getelementptr inbounds nuw i8, ptr %34, i64 16
  store ptr %3, ptr %39, align 8, !tbaa !10
  br label %74

40:                                               ; preds = %lean_obj_tag.exit
  %41 = getelementptr inbounds nuw i8, ptr %2, i64 8
  %42 = load ptr, ptr %41, align 8, !tbaa !10
  %43 = ptrtoint ptr %42 to i64
  %44 = and i64 %43, 510
  %45 = icmp eq i64 %44, 0
  br i1 %45, label %46, label %72

46:                                               ; preds = %40
  %47 = ptrtoint ptr %1 to i64
  %48 = and i64 %47, 1
  %.not = icmp eq i64 %48, 0
  br i1 %.not, label %49, label %lean_dec.exit22

49:                                               ; preds = %46
  %50 = load i32, ptr %1, align 4, !tbaa !4
  %51 = icmp sgt i32 %50, 1
  br i1 %51, label %52, label %54, !prof !9

52:                                               ; preds = %49
  %53 = add nsw i32 %50, -1
  store i32 %53, ptr %1, align 4, !tbaa !4
  br label %lean_dec.exit22

54:                                               ; preds = %49
  %.not.i27 = icmp eq i32 %50, 0
  br i1 %.not.i27, label %lean_dec.exit22, label %55

55:                                               ; preds = %54
  tail call void @lean_dec_ref_cold(ptr noundef nonnull %1) #7
  br label %lean_dec.exit22

lean_dec.exit22:                                  ; preds = %55, %54, %52, %46
  %56 = ptrtoint ptr %0 to i64
  %57 = and i64 %56, 1
  %.not33 = icmp eq i64 %57, 0
  br i1 %.not33, label %58, label %lean_dec.exit

58:                                               ; preds = %lean_dec.exit22
  %59 = load i32, ptr %0, align 4, !tbaa !4
  %60 = icmp sgt i32 %59, 1
  br i1 %60, label %61, label %63, !prof !9

61:                                               ; preds = %58
  %62 = add nsw i32 %59, -1
  store i32 %62, ptr %0, align 4, !tbaa !4
  br label %lean_dec.exit

63:                                               ; preds = %58
  %.not.i29 = icmp eq i32 %59, 0
  br i1 %.not.i29, label %lean_dec.exit, label %64

64:                                               ; preds = %63
  tail call void @lean_dec_ref_cold(ptr noundef nonnull %0) #7
  br label %lean_dec.exit

lean_dec.exit:                                    ; preds = %64, %63, %61, %lean_dec.exit22
  %65 = load ptr, ptr @l___private_Std_Sync_Channel_0__Std_CloseableChannel_Unbounded_send___rarg___closed__2, align 8, !tbaa !10
  tail call void @lean_inc_heartbeat() #7
  %66 = tail call noalias ptr @mi_malloc_small(i64 noundef 24) #7
  %67 = icmp eq ptr %66, null
  br i1 %67, label %68, label %lean_alloc_ctor.exit32

68:                                               ; preds = %lean_dec.exit
  tail call void @lean_internal_panic_out_of_memory() #8
  unreachable

lean_alloc_ctor.exit32:                           ; preds = %lean_dec.exit
  %69 = getelementptr inbounds nuw i8, ptr %66, i64 4
  store i32 1, ptr %66, align 4, !tbaa !4
  store i32 131096, ptr %69, align 4
  %70 = getelementptr inbounds nuw i8, ptr %66, i64 8
  store ptr %65, ptr %70, align 8, !tbaa !10
  %71 = getelementptr inbounds nuw i8, ptr %66, i64 16
  store ptr %3, ptr %71, align 8, !tbaa !10
  br label %74

72:                                               ; preds = %40
  %73 = tail call ptr @l___private_Std_Sync_Channel_0__Std_CloseableChannel_Bounded_send___rarg(ptr noundef %0, ptr noundef %1, ptr noundef %3)
  br label %74

74:                                               ; preds = %lean_alloc_ctor.exit32, %72, %lean_alloc_ctor.exit
  %.0 = phi ptr [ %34, %lean_alloc_ctor.exit ], [ %66, %lean_alloc_ctor.exit32 ], [ %73, %72 ]
  ret ptr %.0
}